target datalayout = "e-m:e-p270:32:32-p271:32:32-p272:64:64-i64:64-i128:128-f80:128-n8:16:32:64-S128"
target triple = "x86_64-pc-linux-gnu"

%"class.std::__shared_count" = type { ptr }
%"class.toku::lock_request" = type { i64, i64, i64, ptr, ptr, %struct.__toku_dbt, %struct.__toku_dbt, i32, ptr, i32, i32, %"class.std::shared_ptr.0", i8, ptr, ptr, ptr, ptr, ptr, %"class.std::function" }
%struct.__toku_dbt = type { ptr, i64, i64, i32 }
%"class.std::shared_ptr.0" = type { %"class.std::__shared_ptr.1" }
%"class.std::__shared_ptr.1" = type { ptr, %"class.std::__shared_count" }
%"class.std::function" = type { %"class.std::_Function_base", ptr }
%"class.std::_Function_base" = type { %"union.std::_Any_data", ptr }
%"union.std::_Any_data" = type { %"union.std::_Nocopy_types" }
%"union.std::_Nocopy_types" = type { { i64, i64 } }

; Function Attrs: mustprogress uwtable
define void @_ZN4toku12lock_request3setEPNS_8locktreeEmPK10__toku_dbtS5_NS0_4typeEbPv(ptr noundef nonnull align 8 dereferenceable(224) %0, ptr noundef %1, i64 noundef %2, ptr noundef %3, ptr noundef %4, i32 noundef %5, i1 noundef zeroext %6, ptr noundef %7) #0 align 2 {
  %9 = alloca ptr, align 8
  %10 = alloca ptr, align 8
  %11 = alloca i64, align 8
  %12 = alloca ptr, align 8
  %13 = alloca ptr, align 8
  %14 = alloca i32, align 4
  %15 = alloca i8, align 1
  %16 = alloca ptr, align 8
  store ptr %0, ptr %9, align 8, !tbaa !4
  store ptr %1, ptr %10, align 8, !tbaa !47
  store i64 %2, ptr %11, align 8, !tbaa !48
  store ptr %3, ptr %12, align 8, !tbaa !49
  store ptr %4, ptr %13, align 8, !tbaa !49
  store i32 %5, ptr %14, align 4, !tbaa !50
  %17 = zext i1 %6 to i8
  store i8 %17, ptr %15, align 1, !tbaa !51
  store ptr %7, ptr %16, align 8, !tbaa !52
  %18 = load ptr, ptr %9, align 8
  %19 = load ptr, ptr %10, align 8, !tbaa !47
  %20 = getelementptr inbounds nuw %"class.toku::lock_request", ptr %18, i32 0, i32 8
  store ptr %19, ptr %20, align 8, !tbaa !34
  %21 = load i64, ptr %11, align 8, !tbaa !48
  %22 = getelementptr inbounds nuw %"class.toku::lock_request", ptr %18, i32 0, i32 0
  store i64 %21, ptr %22, align 8, !tbaa !11
  %23 = load ptr, ptr %12, align 8, !tbaa !49
  %24 = getelementptr inbounds nuw %"class.toku::lock_request", ptr %18, i32 0, i32 3
  store ptr %23, ptr %24, align 8, !tbaa !31
  %25 = load ptr, ptr %13, align 8, !tbaa !49
  %26 = getelementptr inbounds nuw %"class.toku::lock_request", ptr %18, i32 0, i32 4
  store ptr %25, ptr %26, align 8, !tbaa !32
  %27 = getelementptr inbounds nuw %"class.toku::lock_request", ptr %18, i32 0, i32 5
  call void @_Z16toku_destroy_dbtP10__toku_dbt(ptr noundef %27)
  %28 = getelementptr inbounds nuw %"class.toku::lock_request", ptr %18, i32 0, i32 6
  call void @_Z16toku_destroy_dbtP10__toku_dbt(ptr noundef %28)
  %29 = load i32, ptr %14, align 4, !tbaa !50
  %30 = getelementptr inbounds nuw %"class.toku::lock_request", ptr %18, i32 0, i32 7
  store i32 %29, ptr %30, align 8, !tbaa !33
  %31 = getelementptr inbounds nuw %"class.toku::lock_request", ptr %18, i32 0, i32 10
  store i32 1, ptr %31, align 4, !tbaa !36
  %32 = load ptr, ptr %10, align 8, !tbaa !47
  %33 = icmp ne ptr %32, null
  br i1 %33, label %34, label %37

34:                                               ; preds = %8
  %35 = load ptr, ptr %10, align 8, !tbaa !47
  %36 = call noundef ptr @_ZN4toku8locktree21get_lock_request_infoEv(ptr noundef nonnull align 8 dereferenceable(400) %35)
  br label %38

37:                                               ; preds = %8
  br label %38

38:                                               ; preds = %37, %34
  %39 = phi ptr [ %36, %34 ], [ null, %37 ]
  %40 = getelementptr inbounds nuw %"class.toku::lock_request", ptr %18, i32 0, i32 13
  store ptr %39, ptr %40, align 8, !tbaa !37
  %41 = load i8, ptr %15, align 1, !tbaa !51, !range !53, !noundef !54
  %42 = trunc i8 %41 to i1
  %43 = getelementptr inbounds nuw %"class.toku::lock_request", ptr %18, i32 0, i32 12
  %44 = zext i1 %42 to i8
  store i8 %44, ptr %43, align 8, !tbaa !55
  %45 = load ptr, ptr %16, align 8, !tbaa !52
  %46 = getelementptr inbounds nuw %"class.toku::lock_request", ptr %18, i32 0, i32 14
  store ptr %45, ptr %46, align 8, !tbaa !56
  ret void
}