; Function Attrs: mustprogress uwtable
define void @_ZN4toku12lock_request3setEPNS_8locktreeEmPK10__toku_dbtS5_NS0_4typeEbPv(ptr noundef nonnull align 8 dereferenceable(224) initializes((0, 8), (24, 40), (112, 120)) %0, ptr noundef %1, i64 noundef %2, ptr noundef %3, ptr noundef %4, i32 noundef %5, i1 noundef zeroext %6, ptr noundef %7) local_unnamed_addr #0 align 2 {
  %9 = getelementptr inbounds nuw i8, ptr %0, i64 112
  store ptr %1, ptr %9, align 8, !tbaa !41
  store i64 %2, ptr %0, align 8, !tbaa !42
  %10 = getelementptr inbounds nuw i8, ptr %0, i64 24
  store ptr %3, ptr %10, align 8, !tbaa !43
  %11 = getelementptr inbounds nuw i8, ptr %0, i64 32
  store ptr %4, ptr %11, align 8, !tbaa !44
  %12 = getelementptr inbounds nuw i8, ptr %0, i64 40
  tail call void @_Z16toku_destroy_dbtP10__toku_dbt(ptr noundef nonnull %12)
  %13 = getelementptr inbounds nuw i8, ptr %0, i64 72
  tail call void @_Z16toku_destroy_dbtP10__toku_dbt(ptr noundef nonnull %13)
  %14 = getelementptr inbounds nuw i8, ptr %0, i64 104
  store i32 %5, ptr %14, align 8, !tbaa !4
  %15 = getelementptr inbounds nuw i8, ptr %0, i64 124
  store i32 1, ptr %15, align 4, !tbaa !40
  %.not = icmp eq ptr %1, null
  br i1 %.not, label %18, label %16

16:                                               ; preds = %8
  %17 = tail call noundef ptr @_ZN4toku8locktree21get_lock_request_infoEv(ptr noundef nonnull align 8 dereferenceable(400) %1)
  br label %18

18:                                               ; preds = %8, %16
  %19 = phi ptr [ %17, %16 ], [ null, %8 ]
  %20 = zext i1 %6 to i8
  %21 = getelementptr inbounds nuw i8, ptr %0, i64 152
  store ptr %19, ptr %21, align 8, !tbaa !25
  %22 = getelementptr inbounds nuw i8, ptr %0, i64 144
  store i8 %20, ptr %22, align 8, !tbaa !45
  %23 = getelementptr inbounds nuw i8, ptr %0, i64 160
  store ptr %7, ptr %23, align 8, !tbaa !46
  ret void
}